; Function Attrs: nofree norecurse nosync nounwind memory(read, inaccessiblemem: none) uwtable
define internal range(i32 -255, 256) i32 @guc_name_match(ptr noundef readonly captures(none) %0, ptr noundef readonly captures(none) %1, i64 %2) #7 {
  %4 = load ptr, ptr %0, align 8
  %5 = load ptr, ptr %1, align 8
  br label %6

6:                                                ; preds = %10, %3
  %.025.i = phi ptr [ %4, %3 ], [ %11, %10 ]
  %.024.i = phi ptr [ %5, %3 ], [ %12, %10 ]
  %7 = load i8, ptr %.025.i, align 1
  %.not.i = icmp eq i8 %7, 0
  %8 = load i8, ptr %.024.i, align 1
  br i1 %.not.i, label %17, label %9

9:                                                ; preds = %6
  %.not31.i = icmp eq i8 %8, 0
  br i1 %.not31.i, label %guc_name_compare.exit, label %10

10:                                               ; preds = %9
  %11 = getelementptr inbounds nuw i8, ptr %.025.i, i64 1
  %12 = getelementptr inbounds nuw i8, ptr %.024.i, i64 1
  %13 = add i8 %7, -65
  %or.cond.i = icmp ult i8 %13, 26
  %14 = or disjoint i8 %7, 32
  %spec.select.i = select i1 %or.cond.i, i8 %14, i8 %7
  %15 = add i8 %8, -65
  %or.cond5.i = icmp ult i8 %15, 26
  %16 = or disjoint i8 %8, 32
  %.022.i = select i1 %or.cond5.i, i8 %16, i8 %8
  %.not34.not.i = icmp eq i8 %spec.select.i, %.022.i
  br i1 %.not34.not.i, label %6, label %.critedge.loopexit.split.loop.exit.i

17:                                               ; preds = %6
  %.not33.i = icmp ne i8 %8, 0
  %..i = sext i1 %.not33.i to i32
  br label %guc_name_compare.exit

.critedge.loopexit.split.loop.exit.i:             ; preds = %10
  %18 = sext i8 %.022.i to i32
  %19 = sext i8 %spec.select.i to i32
  %20 = sub nsw i32 %19, %18
  br label %guc_name_compare.exit

guc_name_compare.exit:                            ; preds = %9, %17, %.critedge.loopexit.split.loop.exit.i
  %.2.i = phi i32 [ %..i, %17 ], [ %20, %.critedge.loopexit.split.loop.exit.i ], [ 1, %9 ]
  ret i32 %.2.i
}